target datalayout = "e-m:e-p270:32:32-p271:32:32-p272:64:64-i64:64-i128:128-f80:128-n8:16:32:64-S128"
target triple = "x86_64-pc-linux-gnu"

%"class.(anonymous namespace)::CodeGeneratorImpl" = type { %"class.clang::CodeGenerator.base", ptr, ptr, %"class.llvm::IntrusiveRefCntPtr", ptr, ptr, ptr, i32, ptr, %"class.std::unique_ptr", %"class.std::unique_ptr.2", %"class.llvm::SmallVector" }
%"class.clang::CodeGenerator.base" = type { %"class.clang::ASTConsumer.base" }
%"class.clang::ASTConsumer.base" = type <{ ptr, i8 }>
%"class.llvm::IntrusiveRefCntPtr" = type { ptr }
%"class.std::unique_ptr" = type { %"struct.std::__uniq_ptr_data" }
%"struct.std::__uniq_ptr_data" = type { %"class.std::__uniq_ptr_impl" }
%"class.std::__uniq_ptr_impl" = type { %"class.std::tuple" }
%"class.std::tuple" = type { %"struct.std::_Tuple_impl" }
%"struct.std::_Tuple_impl" = type { %"struct.std::_Head_base.1" }
%"struct.std::_Head_base.1" = type { ptr }
%"class.std::unique_ptr.2" = type { %"struct.std::__uniq_ptr_data.3" }
%"struct.std::__uniq_ptr_data.3" = type { %"class.std::__uniq_ptr_impl.4" }
%"class.std::__uniq_ptr_impl.4" = type { %"class.std::tuple.5" }
%"class.std::tuple.5" = type { %"struct.std::_Tuple_impl.6" }
%"struct.std::_Tuple_impl.6" = type { %"struct.std::_Head_base.9" }
%"struct.std::_Head_base.9" = type { ptr }
%"class.llvm::SmallVector" = type { %"class.llvm::SmallVectorImpl", %"struct.llvm::SmallVectorStorage" }
%"class.llvm::SmallVectorImpl" = type { %"class.llvm::SmallVectorTemplateBase" }
%"class.llvm::SmallVectorTemplateBase" = type { %"class.llvm::SmallVectorTemplateCommon" }
%"class.llvm::SmallVectorTemplateCommon" = type { %"class.llvm::SmallVectorBase" }
%"class.llvm::SmallVectorBase" = type { ptr, i32, i32 }
%"struct.llvm::SmallVectorStorage" = type { [64 x i8] }
%"class.std::__cxx11::basic_string" = type { %"struct.std::__cxx11::basic_string<char>::_Alloc_hider", i64, %union.anon.24 }
%"struct.std::__cxx11::basic_string<char>::_Alloc_hider" = type { ptr }
%union.anon.24 = type { i64, [8 x i8] }
%"struct.std::_Rb_tree_header" = type { %"struct.std::_Rb_tree_node_base", i64 }
%"struct.std::_Rb_tree_node_base" = type { i32, ptr, ptr, ptr }
%"class.clang::SourceLocation" = type { i32 }
%"struct.clang::DiagnosticStorage" = type { i8, [10 x i8], [10 x i64], [10 x %"class.std::__cxx11::basic_string"], %"class.llvm::SmallVector.354", %"class.llvm::SmallVector.359" }
%"class.llvm::SmallVector.354" = type { %"class.llvm::SmallVectorImpl.355", %"struct.llvm::SmallVectorStorage.358" }
%"class.llvm::SmallVectorImpl.355" = type { %"class.llvm::SmallVectorTemplateBase.356" }
%"class.llvm::SmallVectorTemplateBase.356" = type { %"class.llvm::SmallVectorTemplateCommon.357" }
%"class.llvm::SmallVectorTemplateCommon.357" = type { %"class.llvm::SmallVectorBase" }
%"struct.llvm::SmallVectorStorage.358" = type { [96 x i8] }
%"class.llvm::SmallVector.359" = type { %"class.llvm::SmallVectorImpl.360", %"struct.llvm::SmallVectorStorage.363" }
%"class.llvm::SmallVectorImpl.360" = type { %"class.llvm::SmallVectorTemplateBase.361" }
%"class.llvm::SmallVectorTemplateBase.361" = type { %"class.llvm::SmallVectorTemplateCommon.362" }
%"class.llvm::SmallVectorTemplateCommon.362" = type { %"class.llvm::SmallVectorBase" }
%"struct.llvm::SmallVectorStorage.363" = type { [384 x i8] }
%"class.clang::DiagnosticsEngine" = type { %"class.llvm::RefCountedBase", i8, i8, i8, i8, i8, i8, i32, i32, i32, i32, i32, %"class.llvm::IntrusiveRefCntPtr.330", %"class.llvm::IntrusiveRefCntPtr.331", ptr, %"class.std::unique_ptr.332", ptr, %"class.std::__cxx11::list", %"class.clang::DiagnosticsEngine::DiagStateMap", %"class.std::vector.349", i8, i8, i8, i8, i32, i32, i32, i32, i32, ptr, ptr, i32, %"class.std::__cxx11::basic_string", %"class.std::__cxx11::basic_string", %"class.std::__cxx11::basic_string", %"class.std::__cxx11::basic_string", %"class.clang::SourceLocation", i32, %"struct.clang::DiagnosticStorage" }
%"class.llvm::RefCountedBase" = type { i32 }
%"class.llvm::IntrusiveRefCntPtr.330" = type { ptr }
%"class.llvm::IntrusiveRefCntPtr.331" = type { ptr }
%"class.std::unique_ptr.332" = type { %"struct.std::__uniq_ptr_data.333" }
%"struct.std::__uniq_ptr_data.333" = type { %"class.std::__uniq_ptr_impl.334" }
%"class.std::__uniq_ptr_impl.334" = type { %"class.std::tuple.335" }
%"class.std::tuple.335" = type { %"struct.std::_Tuple_impl.336" }
%"struct.std::_Tuple_impl.336" = type { %"struct.std::_Head_base.339" }
%"struct.std::_Head_base.339" = type { ptr }
%"class.std::__cxx11::list" = type { %"class.std::__cxx11::_List_base" }
%"class.std::__cxx11::_List_base" = type { %"struct.std::__cxx11::_List_base<clang::DiagnosticsEngine::DiagState, std::allocator<clang::DiagnosticsEngine::DiagState>>::_List_impl" }
%"struct.std::__cxx11::_List_base<clang::DiagnosticsEngine::DiagState, std::allocator<clang::DiagnosticsEngine::DiagState>>::_List_impl" = type { %"struct.std::__detail::_List_node_header" }
%"struct.std::__detail::_List_node_header" = type { %"struct.std::__detail::_List_node_base", i64 }
%"struct.std::__detail::_List_node_base" = type { ptr, ptr }
%"class.clang::DiagnosticsEngine::DiagStateMap" = type <{ %"class.std::map.343", ptr, ptr, %"class.clang::SourceLocation", [4 x i8] }>
%"class.std::map.343" = type { %"class.std::_Rb_tree.344" }
%"class.std::_Rb_tree.344" = type { %"struct.std::_Rb_tree<clang::FileID, std::pair<const clang::FileID, clang::DiagnosticsEngine::DiagStateMap::File>, std::_Select1st<std::pair<const clang::FileID, clang::DiagnosticsEngine::DiagStateMap::File>>, std::less<clang::FileID>>::_Rb_tree_impl" }
%"struct.std::_Rb_tree<clang::FileID, std::pair<const clang::FileID, clang::DiagnosticsEngine::DiagStateMap::File>, std::_Select1st<std::pair<const clang::FileID, clang::DiagnosticsEngine::DiagStateMap::File>>, std::less<clang::FileID>>::_Rb_tree_impl" = type { [8 x i8], %"struct.std::_Rb_tree_header" }
%"class.std::vector.349" = type { %"struct.std::_Vector_base.350" }
%"struct.std::_Vector_base.350" = type { %"struct.std::_Vector_base<clang::DiagnosticsEngine::DiagState *, std::allocator<clang::DiagnosticsEngine::DiagState *>>::_Vector_impl" }
%"struct.std::_Vector_base<clang::DiagnosticsEngine::DiagState *, std::allocator<clang::DiagnosticsEngine::DiagState *>>::_Vector_impl" = type { %"struct.std::_Vector_base<clang::DiagnosticsEngine::DiagState *, std::allocator<clang::DiagnosticsEngine::DiagState *>>::_Vector_impl_data" }
%"struct.std::_Vector_base<clang::DiagnosticsEngine::DiagState *, std::allocator<clang::DiagnosticsEngine::DiagState *>>::_Vector_impl_data" = type { ptr, ptr, ptr }

; Function Attrs: mustprogress nounwind uwtable
define linkonce_odr hidden noundef nonnull align 8 dereferenceable(8) ptr @_ZNSt10_Head_baseILm0EPN5clang7CodeGen13CodeGenModuleELb0EE7_M_headERKS4_(ptr noundef nonnull align 8 dereferenceable(8) %0) #0 comdat align 2 {
  %2 = alloca ptr, align 8
  store ptr %0, ptr %2, align 8
  %3 = load ptr, ptr %2, align 8
  %4 = getelementptr inbounds nuw %"struct.std::_Head_base.9", ptr %3, i32 0, i32 0
  ret ptr %4
}

; Function Attrs: mustprogress nounwind uwtable
define linkonce_odr hidden noundef nonnull align 8 dereferenceable(8) ptr @_ZNSt11_Tuple_implILm0EJPN5clang7CodeGen13CodeGenModuleESt14default_deleteIS2_EEE7_M_headERKS6_(ptr noundef nonnull align 8 dereferenceable(8) %0) #0 comdat align 2 {
  %2 = alloca ptr, align 8
  store ptr %0, ptr %2, align 8
  %3 = load ptr, ptr %2, align 8
  %4 = call noundef nonnull align 8 dereferenceable(8) ptr @_ZNSt10_Head_baseILm0EPN5clang7CodeGen13CodeGenModuleELb0EE7_M_headERKS4_(ptr noundef nonnull align 8 dereferenceable(8) %3) #8
  ret ptr %4
}

; Function Attrs: mustprogress nounwind uwtable
define linkonce_odr noundef nonnull align 8 dereferenceable(8) ptr @_ZSt12__get_helperILm0EPN5clang7CodeGen13CodeGenModuleEJSt14default_deleteIS2_EEERKT0_RKSt11_Tuple_implIXT_EJS6_DpT1_EE(ptr noundef nonnull align 8 dereferenceable(8) %0) #0 comdat {
  %2 = alloca ptr, align 8
  store ptr %0, ptr %2, align 8
  %3 = load ptr, ptr %2, align 8
  %4 = call noundef nonnull align 8 dereferenceable(8) ptr @_ZNSt11_Tuple_implILm0EJPN5clang7CodeGen13CodeGenModuleESt14default_deleteIS2_EEE7_M_headERKS6_(ptr noundef nonnull align 8 dereferenceable(8) %3) #8
  ret ptr %4
}

; Function Attrs: mustprogress nounwind uwtable
define linkonce_odr noundef nonnull align 8 dereferenceable(8) ptr @_ZSt3getILm0EJPN5clang7CodeGen13CodeGenModuleESt14default_deleteIS2_EEERKNSt13tuple_elementIXT_ESt5tupleIJDpT0_EEE4typeERKSA_(ptr noundef nonnull align 8 dereferenceable(8) %0) #0 comdat {
  %2 = alloca ptr, align 8
  store ptr %0, ptr %2, align 8
  %3 = load ptr, ptr %2, align 8
  %4 = call noundef nonnull align 8 dereferenceable(8) ptr @_ZSt12__get_helperILm0EPN5clang7CodeGen13CodeGenModuleEJSt14default_deleteIS2_EEERKT0_RKSt11_Tuple_implIXT_EJS6_DpT1_EE(ptr noundef nonnull align 8 dereferenceable(8) %3) #8
  ret ptr %4
}

; Function Attrs: mustprogress nounwind uwtable
define linkonce_odr hidden noundef ptr @_ZNKSt15__uniq_ptr_implIN5clang7CodeGen13CodeGenModuleESt14default_deleteIS2_EE6_M_ptrEv(ptr noundef nonnull align 8 dereferenceable(8) %0) #0 comdat align 2 {
  %2 = alloca ptr, align 8
  store ptr %0, ptr %2, align 8
  %3 = load ptr, ptr %2, align 8
  %4 = getelementptr inbounds nuw %"class.std::__uniq_ptr_impl.4", ptr %3, i32 0, i32 0
  %5 = call noundef nonnull align 8 dereferenceable(8) ptr @_ZSt3getILm0EJPN5clang7CodeGen13CodeGenModuleESt14default_deleteIS2_EEERKNSt13tuple_elementIXT_ESt5tupleIJDpT0_EEE4typeERKSA_(ptr noundef nonnull align 8 dereferenceable(8) %4) #8
  %6 = load ptr, ptr %5, align 8
  ret ptr %6
}

; Function Attrs: mustprogress nounwind uwtable
define linkonce_odr hidden noundef ptr @_ZNKSt10unique_ptrIN5clang7CodeGen13CodeGenModuleESt14default_deleteIS2_EE3getEv(ptr noundef nonnull align 8 dereferenceable(8) %0) #0 comdat align 2 {
  %2 = alloca ptr, align 8
  store ptr %0, ptr %2, align 8
  %3 = load ptr, ptr %2, align 8
  %4 = getelementptr inbounds nuw %"class.std::unique_ptr.2", ptr %3, i32 0, i32 0
  %5 = call noundef ptr @_ZNKSt15__uniq_ptr_implIN5clang7CodeGen13CodeGenModuleESt14default_deleteIS2_EE6_M_ptrEv(ptr noundef nonnull align 8 dereferenceable(8) %4) #8
  ret ptr %5
}

; Function Attrs: mustprogress nounwind uwtable
define linkonce_odr hidden noundef ptr @_ZNKSt10unique_ptrIN5clang7CodeGen13CodeGenModuleESt14default_deleteIS2_EEptEv(ptr noundef nonnull align 8 dereferenceable(8) %0) #0 comdat align 2 {
  %2 = alloca ptr, align 8
  store ptr %0, ptr %2, align 8
  %3 = load ptr, ptr %2, align 8
  %4 = call noundef ptr @_ZNKSt10unique_ptrIN5clang7CodeGen13CodeGenModuleESt14default_deleteIS2_EE3getEv(ptr noundef nonnull align 8 dereferenceable(8) %3) #8
  ret ptr %4
}

; Function Attrs: mustprogress nounwind uwtable
define linkonce_odr hidden noundef zeroext i1 @_ZNK5clang17DiagnosticsEngine29hasUnrecoverableErrorOccurredEv(ptr noundef nonnull align 8 dereferenceable(1304) %0) #0 comdat align 2 {
  %2 = alloca ptr, align 8
  store ptr %0, ptr %2, align 8
  %3 = load ptr, ptr %2, align 8
  %4 = getelementptr inbounds nuw %"class.clang::DiagnosticsEngine", ptr %3, i32 0, i32 22
  %5 = load i8, ptr %4, align 2
  %6 = trunc i8 %5 to i1
  br i1 %6, label %11, label %7

7:                                                ; preds = %1
  %8 = getelementptr inbounds nuw %"class.clang::DiagnosticsEngine", ptr %3, i32 0, i32 23
  %9 = load i8, ptr %8, align 1
  %10 = trunc i8 %9 to i1
  br label %11

11:                                               ; preds = %7, %1
  %12 = phi i1 [ true, %1 ], [ %10, %7 ]
  ret i1 %12
}

; Function Attrs: mustprogress nounwind uwtable
define internal void @_ZN12_GLOBAL__N_117CodeGeneratorImpl27CompleteTentativeDefinitionEPN5clang7VarDeclE(ptr noundef nonnull align 8 dereferenceable(176) %0, ptr noundef %1) unnamed_addr #0 align 2 {
  %3 = alloca ptr, align 8
  %4 = alloca ptr, align 8
  store ptr %0, ptr %3, align 8
  store ptr %1, ptr %4, align 8
  %5 = load ptr, ptr %3, align 8
  %6 = getelementptr inbounds nuw %"class.(anonymous namespace)::CodeGeneratorImpl", ptr %5, i32 0, i32 1
  %7 = load ptr, ptr %6, align 8
  %8 = call noundef zeroext i1 @_ZNK5clang17DiagnosticsEngine29hasUnrecoverableErrorOccurredEv(ptr noundef nonnull align 8 dereferenceable(1304) %7)
  br i1 %8, label %9, label %10

9:                                                ; preds = %2
  br label %14

10:                                               ; preds = %2
  %11 = getelementptr inbounds nuw %"class.(anonymous namespace)::CodeGeneratorImpl", ptr %5, i32 0, i32 10
  %12 = call noundef ptr @_ZNKSt10unique_ptrIN5clang7CodeGen13CodeGenModuleESt14default_deleteIS2_EEptEv(ptr noundef nonnull align 8 dereferenceable(8) %11) #8
  %13 = load ptr, ptr %4, align 8
  call void @_ZN5clang7CodeGen13CodeGenModule23EmitTentativeDefinitionEPKNS_7VarDeclE(ptr noundef nonnull align 8 dereferenceable(3600) %12, ptr noundef %13)
  br label %14

14:                                               ; preds = %10, %9
  ret void
}